	.file	"main.c"
	.text
	.globl	somar
	.type	somar, @function
somar:
.LFB0:
	.cfi_startproc
	endbr64
	pushq	%rbp
	.cfi_def_cfa_offset 16
	.cfi_offset 6, -16
	movq	%rsp, %rbp
	.cfi_def_cfa_register 6
	movl	%edi, -4(%rbp)
	movl	%esi, -8(%rbp)
	movl	-4(%rbp), %edx
	movl	-8(%rbp), %eax
	addl	%edx, %eax
	popq	%rbp
	.cfi_def_cfa 7, 8
	ret
	.cfi_endproc
.LFE0:
	.size	somar, .-somar
	.globl	subtrair
	.type	subtrair, @function
subtrair:
.LFB1:
	.cfi_startproc
	endbr64
	pushq	%rbp
	.cfi_def_cfa_offset 16
	.cfi_offset 6, -16
	movq	%rsp, %rbp
	.cfi_def_cfa_register 6
	movl	%edi, -4(%rbp)
	movl	%esi, -8(%rbp)
	movl	-4(%rbp), %eax
	subl	-8(%rbp), %eax
	popq	%rbp
	.cfi_def_cfa 7, 8
	ret
	.cfi_endproc
.LFE1:
	.size	subtrair, .-subtrair
	.globl	multiplicacao
	.type	multiplicacao, @function
multiplicacao:
.LFB2:
	.cfi_startproc
	endbr64
	pushq	%rbp
	.cfi_def_cfa_offset 16
	.cfi_offset 6, -16
	movq	%rsp, %rbp
	.cfi_def_cfa_register 6
	movl	%edi, -4(%rbp)
	movl	%esi, -8(%rbp)
	movl	-4(%rbp), %eax
	imull	-8(%rbp), %eax
	popq	%rbp
	.cfi_def_cfa 7, 8
	ret
	.cfi_endproc
.LFE2:
	.size	multiplicacao, .-multiplicacao
	.section	.rodata
.LC0:
	.string	"Hello World!"
	.text
	.globl	hello
	.type	hello, @function
hello:
.LFB3:
	.cfi_startproc
	endbr64
	pushq	%rbp
	.cfi_def_cfa_offset 16
	.cfi_offset 6, -16
	movq	%rsp, %rbp
	.cfi_def_cfa_register 6
	leaq	.LC0(%rip), %rax
	movq	%rax, %rdi
	call	puts@PLT
	nop
	popq	%rbp
	.cfi_def_cfa 7, 8
	ret
	.cfi_endproc
.LFE3:
	.size	hello, .-hello
	.globl	buscarCaracteres
	.type	buscarCaracteres, @function
buscarCaracteres:
.LFB4:
	.cfi_startproc
	endbr64
	pushq	%rbp
	.cfi_def_cfa_offset 16
	.cfi_offset 6, -16
	movq	%rsp, %rbp
	.cfi_def_cfa_register 6
	movq	%rdi, -24(%rbp)
	movl	$0, -4(%rbp)
	jmp	.L9
.L12:
	movl	-4(%rbp), %eax
	movslq	%eax, %rdx
	movq	-24(%rbp), %rax
	addq	%rdx, %rax
	movzbl	(%rax), %eax
	cmpb	$97, %al
	jne	.L10
	movl	$1, %eax
	jmp	.L11
.L10:
	addl	$1, -4(%rbp)
.L9:
	cmpl	$0, -4(%rbp)
	je	.L12
	movl	$0, %eax
.L11:
	popq	%rbp
	.cfi_def_cfa 7, 8
	ret
	.cfi_endproc
.LFE4:
	.size	buscarCaracteres, .-buscarCaracteres
	.section	.rodata
.LC1:
	.string	"Palavra n\303\243o encontrada"
	.text
	.globl	palavraEncontrada
	.type	palavraEncontrada, @function
palavraEncontrada:
.LFB5:
	.cfi_startproc
	endbr64
	pushq	%rbp
	.cfi_def_cfa_offset 16
	.cfi_offset 6, -16
	movq	%rsp, %rbp
	.cfi_def_cfa_register 6
	leaq	.LC1(%rip), %rax
	movq	%rax, %rdi
	call	puts@PLT
	movl	$0, %eax
	popq	%rbp
	.cfi_def_cfa 7, 8
	ret
	.cfi_endproc
.LFE5:
	.size	palavraEncontrada, .-palavraEncontrada
	.section	.rodata
.LC2:
	.string	"Cabelo: %s\n"
.LC3:
	.string	"Cor: %s\n"
	.text
	.globl	imprimirCaracteristicas
	.type	imprimirCaracteristicas, @function
imprimirCaracteristicas:
.LFB6:
	.cfi_startproc
	endbr64
	pushq	%rbp
	.cfi_def_cfa_offset 16
	.cfi_offset 6, -16
	movq	%rsp, %rbp
	.cfi_def_cfa_register 6
	subq	$112, %rsp
	movq	%fs:40, %rax
	movq	%rax, -8(%rbp)
	xorl	%eax, %eax
	leaq	-112(%rbp), %rax
	movabsq	$8027787700632510819, %rdx
	movq	%rdx, (%rax)
	movb	$0, 8(%rax)
	leaq	-112(%rbp), %rax
	addq	$50, %rax
	movl	$1851880034, (%rax)
	movw	$28515, 4(%rax)
	movb	$0, 6(%rax)
	leaq	-112(%rbp), %rax
	movq	%rax, %rsi
	leaq	.LC2(%rip), %rax
	movq	%rax, %rdi
	movl	$0, %eax
	call	printf@PLT
	leaq	-112(%rbp), %rax
	addq	$50, %rax
	movq	%rax, %rsi
	leaq	.LC3(%rip), %rax
	movq	%rax, %rdi
	movl	$0, %eax
	call	printf@PLT
	nop
	movq	-8(%rbp), %rax
	subq	%fs:40, %rax
	je	.L16
	call	__stack_chk_fail@PLT
.L16:
	leave
	.cfi_def_cfa 7, 8
	ret
	.cfi_endproc
.LFE6:
	.size	imprimirCaracteristicas, .-imprimirCaracteristicas
	.section	.rodata
.LC4:
	.string	"abacatw"
.LC5:
	.string	"%d\n"
	.text
	.globl	main
	.type	main, @function
main:
.LFB7:
	.cfi_startproc
	endbr64
	pushq	%rbp
	.cfi_def_cfa_offset 16
	.cfi_offset 6, -16
	movq	%rsp, %rbp
	.cfi_def_cfa_register 6
	subq	$160, %rsp
	movq	%fs:40, %rax
	movq	%rax, -8(%rbp)
	xorl	%eax, %eax
	leaq	.LC4(%rip), %rax
	movq	%rax, %rdi
	call	buscarCaracteres
	movl	$0, %eax
	call	palavraEncontrada
	movl	$1, -160(%rbp)
	movl	$2, -156(%rbp)
	movl	$3, -152(%rbp)
	movl	$4, -148(%rbp)
	movl	$5, -144(%rbp)
	movl	$10, -156(%rbp)
	movl	-156(%rbp), %eax
	movl	%eax, %esi
	leaq	.LC5(%rip), %rax
	movq	%rax, %rdi
	movl	$0, %eax
	call	printf@PLT
	leaq	-128(%rbp), %rax
	movabsq	$31373883352511815, %rcx
	movq	%rcx, (%rax)
	leaq	-64(%rbp), %rax
	movl	$-1547473078, (%rax)
	movw	$111, 4(%rax)
	movl	$20, -76(%rbp)
	movl	$19, -12(%rbp)
	movl	-76(%rbp), %eax
	movl	%eax, %esi
	leaq	.LC5(%rip), %rax
	movq	%rax, %rdi
	movl	$0, %eax
	call	printf@PLT
	movl	-12(%rbp), %eax
	movl	%eax, %esi
	leaq	.LC5(%rip), %rax
	movq	%rax, %rdi
	movl	$0, %eax
	call	printf@PLT
	leaq	-128(%rbp), %rax
	movq	%rax, %rdi
	call	puts@PLT
	leaq	-64(%rbp), %rax
	movq	%rax, %rdi
	call	puts@PLT
	movl	$0, %eax
	call	hello
	movl	$3, %esi
	movl	$4, %edi
	call	somar
	movl	%eax, %esi
	leaq	.LC5(%rip), %rax
	movq	%rax, %rdi
	movl	$0, %eax
	call	printf@PLT
	movl	$3, %esi
	movl	$4, %edi
	call	subtrair
	movl	%eax, %esi
	leaq	.LC5(%rip), %rax
	movq	%rax, %rdi
	movl	$0, %eax
	call	printf@PLT
	movl	$0, %eax
	call	imprimirCaracteristicas
	movl	$0, %eax
	movq	-8(%rbp), %rdx
	subq	%fs:40, %rdx
	je	.L19
	call	__stack_chk_fail@PLT
.L19:
	leave
	.cfi_def_cfa 7, 8
	ret
	.cfi_endproc
.LFE7:
	.size	main, .-main
	.ident	"GCC: (Ubuntu 11.4.0-1ubuntu1~22.04) 11.4.0"
	.section	.note.GNU-stack,"",@progbits
	.section	.note.gnu.property,"a"
	.align 8
	.long	1f - 0f
	.long	4f - 1f
	.long	5
0:
	.string	"GNU"
1:
	.align 8
	.long	0xc0000002
	.long	3f - 2f
2:
	.long	0x3
3:
	.align 8
4:
